target datalayout = "e-m:e-p270:32:32-p271:32:32-p272:64:64-i64:64-i128:128-f80:128-n8:16:32:64-S128"
target triple = "x86_64-unknown-linux-gnu"

%struct.UResourceBundle = type { ptr, ptr, ptr, ptr, ptr, [64 x i8], i32, i32, i8, i8, i32, i32, i32, i32 }
%struct.UResourceDataEntry = type { ptr, ptr, ptr, ptr, ptr, %struct.ResourceData, [3 x i8], i32, i32 }
%struct.ResourceData = type { ptr, ptr, ptr, ptr, i32, i32, ptr, i32, i32, i8, i8, i8, i8 }
%"class.icu_75::ResourceTracer" = type { i8 }

@.str.12 = private unnamed_addr constant [7 x i8] c"string\00", align 1

; Function Attrs: mustprogress nounwind uwtable
define linkonce_odr void @_ZNK6icu_7514ResourceTracer5traceEPKc(ptr noundef nonnull align 1 dereferenceable(1) %this, ptr noundef %0) #0 comdat align 2 {
entry:
  %this.addr = alloca ptr, align 8
  %.addr = alloca ptr, align 8
  store ptr %this, ptr %this.addr, align 8
  store ptr %0, ptr %.addr, align 8
  ret void
}

; Function Attrs: mustprogress uwtable
define linkonce_odr noundef ptr @_ZN6icu_7513res_getStringERKNS_14ResourceTracerEPK12ResourceDatajPi(ptr noundef nonnull align 1 dereferenceable(1) %traceInfo, ptr noundef %pResData, i32 noundef %res, ptr noundef %pLength) #1 comdat {
entry:
  %traceInfo.addr = alloca ptr, align 8
  %pResData.addr = alloca ptr, align 8
  %res.addr = alloca i32, align 4
  %pLength.addr = alloca ptr, align 8
  store ptr %traceInfo, ptr %traceInfo.addr, align 8
  store ptr %pResData, ptr %pResData.addr, align 8
  store i32 %res, ptr %res.addr, align 4
  store ptr %pLength, ptr %pLength.addr, align 8
  %0 = load ptr, ptr %traceInfo.addr, align 8
  call void @_ZNK6icu_7514ResourceTracer5traceEPKc(ptr noundef nonnull align 1 dereferenceable(1) %0, ptr noundef @.str.12)
  %1 = load ptr, ptr %pResData.addr, align 8
  %2 = load i32, ptr %res.addr, align 4
  %3 = load ptr, ptr %pLength.addr, align 8
  %call = call ptr @res_getStringNoTrace_75(ptr noundef %1, i32 noundef %2, ptr noundef %3)
  ret ptr %call
}

; Function Attrs: mustprogress nounwind uwtable
define linkonce_odr noundef nonnull align 8 dereferenceable(64) ptr @_ZNK15UResourceBundle10getResDataEv(ptr noundef nonnull align 8 dereferenceable(136) %this) #0 comdat align 2 {
entry:
  %this.addr = alloca ptr, align 8
  store ptr %this, ptr %this.addr, align 8
  %this1 = load ptr, ptr %this.addr, align 8
  %fData = getelementptr inbounds %struct.UResourceBundle, ptr %this1, i32 0, i32 1
  %0 = load ptr, ptr %fData, align 8
  %fData2 = getelementptr inbounds %struct.UResourceDataEntry, ptr %0, i32 0, i32 5
  ret ptr %fData2
}

; Function Attrs: mustprogress nounwind uwtable
define linkonce_odr void @_ZN6icu_7514ResourceTracerC2EPKv(ptr noundef nonnull align 1 dereferenceable(1) %this, ptr noundef %0) unnamed_addr #0 comdat align 2 {
entry:
  %this.addr = alloca ptr, align 8
  %.addr = alloca ptr, align 8
  store ptr %this, ptr %this.addr, align 8
  store ptr %0, ptr %.addr, align 8
  ret void
}

; Function Attrs: mustprogress nounwind uwtable
define internal noundef signext i8 @_ZL9U_FAILURE10UErrorCode(i32 noundef %code) #0 {
entry:
  %code.addr = alloca i32, align 4
  store i32 %code, ptr %code.addr, align 4
  %0 = load i32, ptr %code.addr, align 4
  %cmp = icmp sgt i32 %0, 0
  %conv = zext i1 %cmp to i8
  ret i8 %conv
}

; Function Attrs: mustprogress uwtable
define ptr @ures_getStringByIndex_75(ptr noundef %resB, i32 noundef %indexS, ptr noundef %len, ptr noundef %status) #1 {
entry:
  %retval = alloca ptr, align 8
  %resB.addr = alloca ptr, align 8
  %indexS.addr = alloca i32, align 4
  %len.addr = alloca ptr, align 8
  %status.addr = alloca ptr, align 8
  %key = alloca ptr, align 8
  %r = alloca i32, align 4
  %ref.tmp = alloca %"class.icu_75::ResourceTracer", align 1
  store ptr %resB, ptr %resB.addr, align 8
  store i32 %indexS, ptr %indexS.addr, align 4
  store ptr %len, ptr %len.addr, align 8
  store ptr %status, ptr %status.addr, align 8
  store ptr null, ptr %key, align 8
  store i32 -1, ptr %r, align 4
  %0 = load ptr, ptr %status.addr, align 8
  %cmp = icmp eq ptr %0, null
  br i1 %cmp, label %if.then, label %lor.lhs.false

lor.lhs.false:                                    ; preds = %entry
  %1 = load ptr, ptr %status.addr, align 8
  %2 = load i32, ptr %1, align 4
  %call = call noundef signext i8 @_ZL9U_FAILURE10UErrorCode(i32 noundef %2)
  %tobool = icmp ne i8 %call, 0
  br i1 %tobool, label %if.then, label %if.end

if.then:                                          ; preds = %lor.lhs.false, %entry
  store ptr null, ptr %retval, align 8
  br label %return

if.end:                                           ; preds = %lor.lhs.false
  %3 = load ptr, ptr %resB.addr, align 8
  %cmp1 = icmp eq ptr %3, null
  br i1 %cmp1, label %if.then2, label %if.end3

if.then2:                                         ; preds = %if.end
  %4 = load ptr, ptr %status.addr, align 8
  store i32 1, ptr %4, align 4
  store ptr null, ptr %retval, align 8
  br label %return

if.end3:                                          ; preds = %if.end
  %5 = load i32, ptr %indexS.addr, align 4
  %cmp4 = icmp sge i32 %5, 0
  br i1 %cmp4, label %land.lhs.true, label %if.else

land.lhs.true:                                    ; preds = %if.end3
  %6 = load ptr, ptr %resB.addr, align 8
  %fSize = getelementptr inbounds %struct.UResourceBundle, ptr %6, i32 0, i32 13
  %7 = load i32, ptr %fSize, align 8
  %8 = load i32, ptr %indexS.addr, align 4
  %cmp5 = icmp sgt i32 %7, %8
  br i1 %cmp5, label %if.then6, label %if.else

if.then6:                                         ; preds = %land.lhs.true
  %9 = load ptr, ptr %resB.addr, align 8
  %fRes = getelementptr inbounds %struct.UResourceBundle, ptr %9, i32 0, i32 7
  %10 = load i32, ptr %fRes, align 4
  %shr = lshr i32 %10, 28
  switch i32 %shr, label %sw.default [
    i32 0, label %sw.bb
    i32 6, label %sw.bb
    i32 2, label %sw.bb10
    i32 5, label %sw.bb10
    i32 4, label %sw.bb10
    i32 8, label %sw.bb20
    i32 9, label %sw.bb20
    i32 3, label %sw.bb31
    i32 7, label %sw.bb34
    i32 1, label %sw.bb34
    i32 14, label %sw.bb34
  ]

sw.bb:                                            ; preds = %if.then6, %if.then6
  %11 = load ptr, ptr %resB.addr, align 8
  call void @_ZN6icu_7514ResourceTracerC2EPKv(ptr noundef nonnull align 1 dereferenceable(1) %ref.tmp, ptr noundef %11)
  %12 = load ptr, ptr %resB.addr, align 8
  %call7 = call noundef nonnull align 8 dereferenceable(64) ptr @_ZNK15UResourceBundle10getResDataEv(ptr noundef nonnull align 8 dereferenceable(136) %12)
  %13 = load ptr, ptr %resB.addr, align 8
  %fRes8 = getelementptr inbounds %struct.UResourceBundle, ptr %13, i32 0, i32 7
  %14 = load i32, ptr %fRes8, align 4
  %15 = load ptr, ptr %len.addr, align 8
  %call9 = call noundef ptr @_ZN6icu_7513res_getStringERKNS_14ResourceTracerEPK12ResourceDatajPi(ptr noundef nonnull align 1 dereferenceable(1) %ref.tmp, ptr noundef %call7, i32 noundef %14, ptr noundef %15)
  store ptr %call9, ptr %retval, align 8
  br label %return

sw.bb10:                                          ; preds = %if.then6, %if.then6, %if.then6
  %16 = load ptr, ptr %resB.addr, align 8
  %call11 = call noundef nonnull align 8 dereferenceable(64) ptr @_ZNK15UResourceBundle10getResDataEv(ptr noundef nonnull align 8 dereferenceable(136) %16)
  %17 = load ptr, ptr %resB.addr, align 8
  %fRes12 = getelementptr inbounds %struct.UResourceBundle, ptr %17, i32 0, i32 7
  %18 = load i32, ptr %fRes12, align 4
  %19 = load i32, ptr %indexS.addr, align 4
  %call13 = call i32 @res_getTableItemByIndex_75(ptr noundef %call11, i32 noundef %18, i32 noundef %19, ptr noundef %key)
  store i32 %call13, ptr %r, align 4
  %20 = load i32, ptr %r, align 4
  %cmp14 = icmp eq i32 %20, -1
  br i1 %cmp14, label %land.lhs.true15, label %if.end18

land.lhs.true15:                                  ; preds = %sw.bb10
  %21 = load ptr, ptr %resB.addr, align 8
  %fHasFallback = getelementptr inbounds %struct.UResourceBundle, ptr %21, i32 0, i32 8
  %22 = load i8, ptr %fHasFallback, align 8
  %tobool16 = icmp ne i8 %22, 0
  br i1 %tobool16, label %if.then17, label %if.end18

if.then17:                                        ; preds = %land.lhs.true15
  br label %if.end18

if.end18:                                         ; preds = %if.then17, %land.lhs.true15, %sw.bb10
  %23 = load ptr, ptr %resB.addr, align 8
  %24 = load i32, ptr %r, align 4
  %25 = load i32, ptr %indexS.addr, align 4
  %26 = load ptr, ptr %len.addr, align 8
  %27 = load ptr, ptr %status.addr, align 8
  %call19 = call noundef ptr @_ZL23ures_getStringWithAliasPK15UResourceBundlejiPiP10UErrorCode(ptr noundef %23, i32 noundef %24, i32 noundef %25, ptr noundef %26, ptr noundef %27)
  store ptr %call19, ptr %retval, align 8
  br label %return

sw.bb20:                                          ; preds = %if.then6, %if.then6
  %28 = load ptr, ptr %resB.addr, align 8
  %call21 = call noundef nonnull align 8 dereferenceable(64) ptr @_ZNK15UResourceBundle10getResDataEv(ptr noundef nonnull align 8 dereferenceable(136) %28)
  %29 = load ptr, ptr %resB.addr, align 8
  %fRes22 = getelementptr inbounds %struct.UResourceBundle, ptr %29, i32 0, i32 7
  %30 = load i32, ptr %fRes22, align 4
  %31 = load i32, ptr %indexS.addr, align 4
  %call23 = call i32 @res_getArrayItem_75(ptr noundef %call21, i32 noundef %30, i32 noundef %31)
  store i32 %call23, ptr %r, align 4
  %32 = load i32, ptr %r, align 4
  %cmp24 = icmp eq i32 %32, -1
  br i1 %cmp24, label %land.lhs.true25, label %if.end29

land.lhs.true25:                                  ; preds = %sw.bb20
  %33 = load ptr, ptr %resB.addr, align 8
  %fHasFallback26 = getelementptr inbounds %struct.UResourceBundle, ptr %33, i32 0, i32 8
  %34 = load i8, ptr %fHasFallback26, align 8
  %tobool27 = icmp ne i8 %34, 0
  br i1 %tobool27, label %if.then28, label %if.end29

if.then28:                                        ; preds = %land.lhs.true25
  br label %if.end29

if.end29:                                         ; preds = %if.then28, %land.lhs.true25, %sw.bb20
  %35 = load ptr, ptr %resB.addr, align 8
  %36 = load i32, ptr %r, align 4
  %37 = load i32, ptr %indexS.addr, align 4
  %38 = load ptr, ptr %len.addr, align 8
  %39 = load ptr, ptr %status.addr, align 8
  %call30 = call noundef ptr @_ZL23ures_getStringWithAliasPK15UResourceBundlejiPiP10UErrorCode(ptr noundef %35, i32 noundef %36, i32 noundef %37, ptr noundef %38, ptr noundef %39)
  store ptr %call30, ptr %retval, align 8
  br label %return

sw.bb31:                                          ; preds = %if.then6
  %40 = load ptr, ptr %resB.addr, align 8
  %41 = load ptr, ptr %resB.addr, align 8
  %fRes32 = getelementptr inbounds %struct.UResourceBundle, ptr %41, i32 0, i32 7
  %42 = load i32, ptr %fRes32, align 4
  %43 = load i32, ptr %indexS.addr, align 4
  %44 = load ptr, ptr %len.addr, align 8
  %45 = load ptr, ptr %status.addr, align 8
  %call33 = call noundef ptr @_ZL23ures_getStringWithAliasPK15UResourceBundlejiPiP10UErrorCode(ptr noundef %40, i32 noundef %42, i32 noundef %43, ptr noundef %44, ptr noundef %45)
  store ptr %call33, ptr %retval, align 8
  br label %return

sw.bb34:                                          ; preds = %if.then6, %if.then6, %if.then6
  %46 = load ptr, ptr %status.addr, align 8
  store i32 17, ptr %46, align 4
  br label %sw.epilog

sw.default:                                       ; preds = %if.then6
  %47 = load ptr, ptr %status.addr, align 8
  store i32 5, ptr %47, align 4
  br label %sw.epilog

sw.epilog:                                        ; preds = %sw.default, %sw.bb34
  br label %if.end35

if.else:                                          ; preds = %land.lhs.true, %if.end3
  %48 = load ptr, ptr %status.addr, align 8
  store i32 2, ptr %48, align 4
  br label %if.end35

if.end35:                                         ; preds = %if.else, %sw.epilog
  store ptr null, ptr %retval, align 8
  br label %return

return:                                           ; preds = %if.end35, %sw.bb31, %if.end29, %if.end18, %sw.bb, %if.then2, %if.then
  %49 = load ptr, ptr %retval, align 8
  ret ptr %49
}