; Function Attrs: mustprogress uwtable
define noundef ptr @ures_getStringByIndex_75(ptr noundef %resB, i32 noundef %indexS, ptr noundef %len, ptr noundef %status) local_unnamed_addr #1 {
entry:
  %key = alloca ptr, align 8
  store ptr null, ptr %key, align 8
  %cmp = icmp eq ptr %status, null
  br i1 %cmp, label %return, label %lor.lhs.false

lor.lhs.false:                                    ; preds = %entry
  %0 = load i32, ptr %status, align 4
  %cmp.i = icmp slt i32 %0, 1
  br i1 %cmp.i, label %if.end, label %return

if.end:                                           ; preds = %lor.lhs.false
  %cmp1 = icmp eq ptr %resB, null
  br i1 %cmp1, label %if.then2, label %if.end3

if.then2:                                         ; preds = %if.end
  store i32 1, ptr %status, align 4
  br label %return

if.end3:                                          ; preds = %if.end
  %cmp4 = icmp sgt i32 %indexS, -1
  br i1 %cmp4, label %land.lhs.true, label %if.else

land.lhs.true:                                    ; preds = %if.end3
  %fSize = getelementptr inbounds i8, ptr %resB, i64 128
  %1 = load i32, ptr %fSize, align 8
  %cmp5 = icmp sgt i32 %1, %indexS
  br i1 %cmp5, label %if.then6, label %if.else

if.then6:                                         ; preds = %land.lhs.true
  %fRes = getelementptr inbounds i8, ptr %resB, i64 108
  %2 = load i32, ptr %fRes, align 4
  %shr = lshr i32 %2, 28
  switch i32 %shr, label %sw.default [
    i32 0, label %sw.bb
    i32 6, label %sw.bb
    i32 2, label %sw.bb10
    i32 5, label %sw.bb10
    i32 4, label %sw.bb10
    i32 8, label %sw.bb20
    i32 9, label %sw.bb20
    i32 3, label %sw.bb31
    i32 7, label %sw.bb34
    i32 1, label %sw.bb34
    i32 14, label %sw.bb34
  ]

sw.bb:                                            ; preds = %if.then6, %if.then6
  %fData.i = getelementptr inbounds i8, ptr %resB, i64 8
  %3 = load ptr, ptr %fData.i, align 8
  %fData2.i = getelementptr inbounds i8, ptr %3, i64 40
  %call.i = tail call noundef ptr @res_getStringNoTrace_75(ptr noundef nonnull %fData2.i, i32 noundef %2, ptr noundef %len)
  br label %return

sw.bb10:                                          ; preds = %if.then6, %if.then6, %if.then6
  %fData.i34 = getelementptr inbounds i8, ptr %resB, i64 8
  %4 = load ptr, ptr %fData.i34, align 8
  %fData2.i35 = getelementptr inbounds i8, ptr %4, i64 40
  %call13 = call i32 @res_getTableItemByIndex_75(ptr noundef nonnull %fData2.i35, i32 noundef %2, i32 noundef %indexS, ptr noundef nonnull %key)
  %call19 = call fastcc noundef ptr @_ZL23ures_getStringWithAliasPK15UResourceBundlejiPiP10UErrorCode(ptr noundef nonnull %resB, i32 noundef %call13, i32 noundef %indexS, ptr noundef %len, ptr noundef nonnull %status)
  br label %return

sw.bb20:                                          ; preds = %if.then6, %if.then6
  %fData.i36 = getelementptr inbounds i8, ptr %resB, i64 8
  %5 = load ptr, ptr %fData.i36, align 8
  %fData2.i37 = getelementptr inbounds i8, ptr %5, i64 40
  %call23 = tail call i32 @res_getArrayItem_75(ptr noundef nonnull %fData2.i37, i32 noundef %2, i32 noundef %indexS)
  %call30 = tail call fastcc noundef ptr @_ZL23ures_getStringWithAliasPK15UResourceBundlejiPiP10UErrorCode(ptr noundef nonnull %resB, i32 noundef %call23, i32 noundef %indexS, ptr noundef %len, ptr noundef nonnull %status)
  br label %return

sw.bb31:                                          ; preds = %if.then6
  %call33 = tail call fastcc noundef ptr @_ZL23ures_getStringWithAliasPK15UResourceBundlejiPiP10UErrorCode(ptr noundef nonnull %resB, i32 noundef %2, i32 noundef %indexS, ptr noundef %len, ptr noundef nonnull %status)
  br label %return

sw.bb34:                                          ; preds = %if.then6, %if.then6, %if.then6
  store i32 17, ptr %status, align 4
  br label %return

sw.default:                                       ; preds = %if.then6
  store i32 5, ptr %status, align 4
  br label %return

if.else:                                          ; preds = %land.lhs.true, %if.end3
  store i32 2, ptr %status, align 4
  br label %return

return:                                           ; preds = %if.else, %sw.default, %sw.bb34, %entry, %lor.lhs.false, %sw.bb31, %sw.bb20, %sw.bb10, %sw.bb, %if.then2
  %retval.0 = phi ptr [ null, %if.then2 ], [ %call33, %sw.bb31 ], [ %call30, %sw.bb20 ], [ %call19, %sw.bb10 ], [ %call.i, %sw.bb ], [ null, %lor.lhs.false ], [ null, %entry ], [ null, %sw.bb34 ], [ null, %sw.default ], [ null, %if.else ]
  ret ptr %retval.0
}